target datalayout = "e-m:e-p270:32:32-p271:32:32-p272:64:64-i64:64-i128:128-f80:128-n8:16:32:64-S128"
target triple = "x86_64-pc-linux-gnu"

@UseG1GC = external global i8, align 1
@.str.10 = private unnamed_addr constant [64 x i8] c"GCPauseIntervalMillis (%lu) must be greater than or equal to 1\0A\00", align 1
@.str.11 = private unnamed_addr constant [70 x i8] c"GCPauseIntervalMillis cannot be set without setting MaxGCPauseMillis\0A\00", align 1
@MaxGCPauseMillis = external global i64, align 8
@.str.12 = private unnamed_addr constant [73 x i8] c"GCPauseIntervalMillis (%lu) must be greater than MaxGCPauseMillis (%lu)\0A\00", align 1

; Function Attrs: mustprogress nounwind uwtable
define hidden noundef i32 @_Z37GCPauseIntervalMillisConstraintFuncG1mb(i64 noundef %0, i1 noundef zeroext %1) #1 {
  %3 = alloca i32, align 4
  %4 = alloca i64, align 8
  %5 = alloca i8, align 1
  store i64 %0, ptr %4, align 8
  %6 = zext i1 %1 to i8
  store i8 %6, ptr %5, align 1
  %7 = load i8, ptr @UseG1GC, align 1
  %8 = trunc i8 %7 to i1
  br i1 %8, label %9, label %34

9:                                                ; preds = %2
  %10 = call noundef zeroext i1 @_ZN7JVMFlag10is_cmdlineE12JVMFlagsEnum(i32 noundef 1159)
  br i1 %10, label %11, label %33

11:                                               ; preds = %9
  %12 = load i64, ptr %4, align 8
  %13 = icmp ult i64 %12, 1
  br i1 %13, label %14, label %18

14:                                               ; preds = %11
  %15 = load i8, ptr %5, align 1
  %16 = trunc i8 %15 to i1
  %17 = load i64, ptr %4, align 8
  call void (i1, ptr, ...) @_ZN7JVMFlag10printErrorEbPKcz(i1 noundef zeroext %16, ptr noundef @.str.10, i64 noundef %17)
  store i32 6, ptr %3, align 4
  br label %35

18:                                               ; preds = %11
  %19 = call noundef zeroext i1 @_ZN7JVMFlag10is_defaultE12JVMFlagsEnum(i32 noundef 1158)
  br i1 %19, label %20, label %23

20:                                               ; preds = %18
  %21 = load i8, ptr %5, align 1
  %22 = trunc i8 %21 to i1
  call void (i1, ptr, ...) @_ZN7JVMFlag10printErrorEbPKcz(i1 noundef zeroext %22, ptr noundef @.str.11)
  store i32 6, ptr %3, align 4
  br label %35

23:                                               ; preds = %18
  %24 = load i64, ptr %4, align 8
  %25 = load i64, ptr @MaxGCPauseMillis, align 8
  %26 = icmp ule i64 %24, %25
  br i1 %26, label %27, label %32

27:                                               ; preds = %23
  %28 = load i8, ptr %5, align 1
  %29 = trunc i8 %28 to i1
  %30 = load i64, ptr %4, align 8
  %31 = load i64, ptr @MaxGCPauseMillis, align 8
  call void (i1, ptr, ...) @_ZN7JVMFlag10printErrorEbPKcz(i1 noundef zeroext %29, ptr noundef @.str.12, i64 noundef %30, i64 noundef %31)
  store i32 6, ptr %3, align 4
  br label %35

32:                                               ; preds = %23
  br label %33

33:                                               ; preds = %32, %9
  br label %34

34:                                               ; preds = %33, %2
  store i32 0, ptr %3, align 4
  br label %35

35:                                               ; preds = %34, %27, %20, %14
  %36 = load i32, ptr %3, align 4
  ret i32 %36
}