; Function Attrs: mustprogress nounwind uwtable
define hidden noundef range(i32 0, 7) i32 @_Z37GCPauseIntervalMillisConstraintFuncG1mb(i64 noundef %0, i1 noundef zeroext %1) local_unnamed_addr #0 {
  %3 = load i8, ptr @UseG1GC, align 1
  %4 = trunc i8 %3 to i1
  br i1 %4, label %5, label %16

5:                                                ; preds = %2
  %6 = tail call noundef zeroext i1 @_ZN7JVMFlag10is_cmdlineE12JVMFlagsEnum(i32 noundef 1159) #4
  br i1 %6, label %7, label %16

7:                                                ; preds = %5
  %8 = icmp eq i64 %0, 0
  br i1 %8, label %9, label %10

9:                                                ; preds = %7
  tail call void (i1, ptr, ...) @_ZN7JVMFlag10printErrorEbPKcz(i1 noundef zeroext %1, ptr noundef nonnull @.str.10, i64 noundef 0) #4
  br label %16

10:                                               ; preds = %7
  %11 = tail call noundef zeroext i1 @_ZN7JVMFlag10is_defaultE12JVMFlagsEnum(i32 noundef 1158) #4
  br i1 %11, label %12, label %13

12:                                               ; preds = %10
  tail call void (i1, ptr, ...) @_ZN7JVMFlag10printErrorEbPKcz(i1 noundef zeroext %1, ptr noundef nonnull @.str.11) #4
  br label %16

13:                                               ; preds = %10
  %14 = load i64, ptr @MaxGCPauseMillis, align 8
  %.not = icmp ult i64 %14, %0
  br i1 %.not, label %16, label %15

15:                                               ; preds = %13
  tail call void (i1, ptr, ...) @_ZN7JVMFlag10printErrorEbPKcz(i1 noundef zeroext %1, ptr noundef nonnull @.str.12, i64 noundef %0, i64 noundef %14) #4
  br label %16

16:                                               ; preds = %2, %13, %5, %15, %12, %9
  %.0 = phi i32 [ 6, %9 ], [ 6, %12 ], [ 6, %15 ], [ 0, %5 ], [ 0, %13 ], [ 0, %2 ]
  ret i32 %.0
}